; Function Attrs: mustprogress nofree norecurse nosync nounwind willreturn memory(argmem: read) uwtable
define noundef range(i32 -1073840123, 1073840130) i32 @_ZNK8facebook5velox6common3hll8DenseHll14serializedSizeEv(ptr noundef nonnull readonly align 8 captures(none) dereferenceable(112) %this) local_unnamed_addr #9 align 2 {
entry:
  %0 = load i8, ptr %this, align 8
  %conv1 = zext nneg i8 %0 to i32
  %shl = shl nuw i32 1, %conv1
  %div = sdiv i32 %shl, 2
  %overflows_ = getelementptr inbounds nuw i8, ptr %this, i64 40
  %1 = load i16, ptr %overflows_, align 8
  %conv3 = sext i16 %1 to i32
  %mul = shl nsw i32 %conv3, 1
  %add2 = add nsw i32 %conv3, 5
  %add4 = add nsw i32 %add2, %div
  %add7 = add nsw i32 %add4, %mul
  ret i32 %add7
}